	.file	"2dWithClang.cpp"
	.text
	.local	_ZStL8__ioinit
	.comm	_ZStL8__ioinit,1,1
	.globl	main
	.type	main, @function
main:
.LFB1731:
	.cfi_startproc
	endbr64
	pushq	%rbp
	.cfi_def_cfa_offset 16
	.cfi_offset 6, -16
	movq	%rsp, %rbp
	.cfi_def_cfa_register 6
	pushq	%r15
	pushq	%r14
	pushq	%r13
	pushq	%r12
	pushq	%rbx
	subq	$104, %rsp
	.cfi_offset 15, -24
	.cfi_offset 14, -32
	.cfi_offset 13, -40
	.cfi_offset 12, -48
	.cfi_offset 3, -56
	movq	%fs:40, %rax
	movq	%rax, -56(%rbp)
	xorl	%eax, %eax
	movq	%rsp, %rax
	movq	%rax, %rbx
	movl	$3, -88(%rbp)
	movl	$2, -84(%rbp)
	leaq	-88(%rbp), %rax
	movq	%rax, %rsi
	leaq	_ZSt3cin(%rip), %rax
	movq	%rax, %rdi
	call	_ZNSirsERi@PLT
	movq	%rax, %rdx
	leaq	-84(%rbp), %rax
	movq	%rax, %rsi
	movq	%rdx, %rdi
	call	_ZNSirsERi@PLT
	movl	-84(%rbp), %ecx
	movslq	%ecx, %rax
	subq	$1, %rax
	movq	%rax, -80(%rbp)
	movslq	%ecx, %rax
	movq	%rax, -144(%rbp)
	movq	$0, -136(%rbp)
	movl	-88(%rbp), %esi
	movslq	%esi, %rax
	subq	$1, %rax
	movq	%rax, -72(%rbp)
	movslq	%ecx, %rax
	movq	%rax, -112(%rbp)
	movq	$0, -104(%rbp)
	movslq	%esi, %rax
	movq	%rax, -128(%rbp)
	movq	$0, -120(%rbp)
	movq	-112(%rbp), %r8
	movq	-104(%rbp), %r9
	movq	%r9, %rdx
	movq	-128(%rbp), %r10
	movq	-120(%rbp), %r11
	imulq	%r10, %rdx
	movq	%r11, %rax
	imulq	%r8, %rax
	leaq	(%rdx,%rax), %rdi
	movq	%r8, %rax
	mulq	%r10
	addq	%rdx, %rdi
	movq	%rdi, %rdx
	movslq	%ecx, %rax
	movq	%rax, %r14
	movl	$0, %r15d
	movslq	%esi, %rax
	movq	%rax, %r12
	movl	$0, %r13d
	movq	%r15, %rdx
	imulq	%r12, %rdx
	movq	%r13, %rax
	imulq	%r14, %rax
	leaq	(%rdx,%rax), %rdi
	movq	%r14, %rax
	mulq	%r12
	addq	%rdx, %rdi
	movq	%rdi, %rdx
	movslq	%ecx, %rdx
	movslq	%esi, %rax
	imulq	%rdx, %rax
	leaq	0(,%rax,4), %rdx
	movl	$16, %eax
	subq	$1, %rax
	addq	%rdx, %rax
	movl	$16, %esi
	movl	$0, %edx
	divq	%rsi
	imulq	$16, %rax, %rax
	movq	%rax, %rcx
	andq	$-4096, %rcx
	movq	%rsp, %rdx
	subq	%rcx, %rdx
.L2:
	cmpq	%rdx, %rsp
	je	.L3
	subq	$4096, %rsp
	orq	$0, 4088(%rsp)
	jmp	.L2
.L3:
	movq	%rax, %rdx
	andl	$4095, %edx
	subq	%rdx, %rsp
	movq	%rax, %rdx
	andl	$4095, %edx
	testq	%rdx, %rdx
	je	.L4
	andl	$4095, %eax
	subq	$8, %rax
	addq	%rsp, %rax
	orq	$0, (%rax)
.L4:
	movq	%rsp, %rax
	addq	$3, %rax
	shrq	$2, %rax
	salq	$2, %rax
	movq	%rax, -64(%rbp)
	movq	%rbx, %rsp
	movl	$0, %eax
	movq	-56(%rbp), %rdx
	subq	%fs:40, %rdx
	je	.L6
	call	__stack_chk_fail@PLT
.L6:
	leaq	-40(%rbp), %rsp
	popq	%rbx
	popq	%r12
	popq	%r13
	popq	%r14
	popq	%r15
	popq	%rbp
	.cfi_def_cfa 7, 8
	ret
	.cfi_endproc
.LFE1731:
	.size	main, .-main
	.type	_Z41__static_initialization_and_destruction_0ii, @function
_Z41__static_initialization_and_destruction_0ii:
.LFB2226:
	.cfi_startproc
	endbr64
	pushq	%rbp
	.cfi_def_cfa_offset 16
	.cfi_offset 6, -16
	movq	%rsp, %rbp
	.cfi_def_cfa_register 6
	subq	$16, %rsp
	movl	%edi, -4(%rbp)
	movl	%esi, -8(%rbp)
	cmpl	$1, -4(%rbp)
	jne	.L9
	cmpl	$65535, -8(%rbp)
	jne	.L9
	leaq	_ZStL8__ioinit(%rip), %rax
	movq	%rax, %rdi
	call	_ZNSt8ios_base4InitC1Ev@PLT
	leaq	__dso_handle(%rip), %rax
	movq	%rax, %rdx
	leaq	_ZStL8__ioinit(%rip), %rax
	movq	%rax, %rsi
	movq	_ZNSt8ios_base4InitD1Ev@GOTPCREL(%rip), %rax
	movq	%rax, %rdi
	call	__cxa_atexit@PLT
.L9:
	nop
	leave
	.cfi_def_cfa 7, 8
	ret
	.cfi_endproc
.LFE2226:
	.size	_Z41__static_initialization_and_destruction_0ii, .-_Z41__static_initialization_and_destruction_0ii
	.type	_GLOBAL__sub_I_main, @function
_GLOBAL__sub_I_main:
.LFB2227:
	.cfi_startproc
	endbr64
	pushq	%rbp
	.cfi_def_cfa_offset 16
	.cfi_offset 6, -16
	movq	%rsp, %rbp
	.cfi_def_cfa_register 6
	movl	$65535, %esi
	movl	$1, %edi
	call	_Z41__static_initialization_and_destruction_0ii
	popq	%rbp
	.cfi_def_cfa 7, 8
	ret
	.cfi_endproc
.LFE2227:
	.size	_GLOBAL__sub_I_main, .-_GLOBAL__sub_I_main
	.section	.init_array,"aw"
	.align 8
	.quad	_GLOBAL__sub_I_main
	.hidden	__dso_handle
	.ident	"GCC: (Ubuntu 11.4.0-1ubuntu1~22.04) 11.4.0"
	.section	.note.GNU-stack,"",@progbits
	.section	.note.gnu.property,"a"
	.align 8
	.long	1f - 0f
	.long	4f - 1f
	.long	5
0:
	.string	"GNU"
1:
	.align 8
	.long	0xc0000002
	.long	3f - 2f
2:
	.long	0x3
3:
	.align 8
4:
